
bootloader.elf:     file format elf32-littleriscv


Disassembly of section .text:

80000000 <Reset>:
80000000:	30047073          	csrci	mstatus,8
80000004:	80000137          	lui	x2,0x80000
80000008:	40010113          	addi	x2,x2,1024 # 80000400 <file+0xf0000400>
8000000c:	800004b7          	lui	x9,0x80000
80000010:	3e048493          	addi	x9,x9,992 # 800003e0 <file+0xf00003e0>

80000014 <LCD_init>:
80000014:	40001737          	lui	x14,0x40001
80000018:	431c                	lw	x15,0(x14)
8000001a:	8b91                	andi	x15,x15,4
8000001c:	dfe5                	beqz	x15,80000014 <LCD_init>
8000001e:	40001737          	lui	x14,0x40001
80000022:	4785                	li	x15,1
80000024:	c31c                	sw	x15,0(x14)
80000026:	14f1                	addi	x9,x9,-4
80000028:	c080                	sw	x8,0(x9)
8000002a:	640d                	lui	x8,0x3
8000002c:	ee040413          	addi	x8,x8,-288 # 2ee0 <CYCLES_MS>
80000030:	2239                	jal	8000013e <delay_cycles>
80000032:	40001737          	lui	x14,0x40001
80000036:	478d                	li	x15,3
80000038:	c31c                	sw	x15,0(x14)
8000003a:	14f1                	addi	x9,x9,-4
8000003c:	c080                	sw	x8,0(x9)
8000003e:	00160437          	lui	x8,0x160
80000042:	90040413          	addi	x8,x8,-1792 # 15f900 <BIT20+0x5f900>
80000046:	28e5                	jal	8000013e <delay_cycles>
80000048:	40001737          	lui	x14,0x40001
8000004c:	4789                	li	x15,2
8000004e:	c31c                	sw	x15,0(x14)
80000050:	00000697          	auipc	x13,0x0
80000054:	03c68693          	addi	x13,x13,60 # 8000008c <LCD_init_data>
80000058:	40002737          	lui	x14,0x40002
8000005c:	00069783          	lh	x15,0(x13)
80000060:	0007c563          	bltz	x15,8000006a <FetchFirmware>
80000064:	c31c                	sw	x15,0(x14)
80000066:	0689                	addi	x13,x13,2
80000068:	bfd5                	j	8000005c <LCD_init+0x48>

8000006a <FetchFirmware>:
8000006a:	00020537          	lui	x10,0x20
8000006e:	1571                	addi	x10,x10,-4
80000070:	900005b7          	lui	x11,0x90000
80000074:	95aa                	add	x11,x11,x10
80000076:	4190                	lw	x12,0(x11)
80000078:	c110                	sw	x12,0(x10)
8000007a:	f975                	bnez	x10,8000006e <FetchFirmware+0x4>

8000007c <Boot>:
8000007c:	00002503          	lw	x10,0(x0) # 0 <BIT0-0x1>
80000080:	c119                	beqz	x10,80000086 <Echo>
80000082:	00000067          	jr	x0 # 0 <BIT0-0x1>

80000086 <Echo>:
80000086:	28c5                	jal	80000176 <serial_key>
80000088:	20e9                	jal	80000152 <serial_emit>
8000008a:	bff5                	j	80000086 <Echo>

8000008c <LCD_init_data>:
8000008c:	000001cf          	fnmadd.s	f3,f0,f0,f0,rne
80000090:	00c1                	addi	x1,x1,16
80000092:	0030                	addi	x12,x2,8
80000094:	01ed                	addi	x3,x3,27
80000096:	0064                	addi	x9,x2,12
80000098:	00120003          	lb	x0,1(x4) # 1 <BIT0>
8000009c:	0081                	addi	x1,x1,0
8000009e:	01e8                	addi	x10,x2,204
800000a0:	0085                	addi	x1,x1,1
800000a2:	0000                	unimp
800000a4:	0078                	addi	x14,x2,12
800000a6:	003901cb          	fnmsub.s	f3,f18,f3,f0,rne
800000aa:	002c                	addi	x11,x2,8
800000ac:	0000                	unimp
800000ae:	0034                	addi	x13,x2,8
800000b0:	0002                	c.slli64	x0
800000b2:	002001f7          	0x2001f7
800000b6:	01ea                	slli	x3,x3,0x1a
800000b8:	0000                	unimp
800000ba:	0000                	unimp
800000bc:	01c0                	addi	x8,x2,196
800000be:	01c10023          	sb	x28,0(x2)
800000c2:	0010                	0x10
800000c4:	01c5                	addi	x3,x3,17
800000c6:	003e                	c.slli	x0,0xf
800000c8:	0028                	addi	x10,x2,8
800000ca:	008601c7          	fmsub.s	f3,f12,f8,f0,rne
800000ce:	0136                	slli	x2,x2,0xd
800000d0:	0008                	0x8
800000d2:	013a                	slli	x2,x2,0xe
800000d4:	0055                	c.nop	21
800000d6:	01b1                	addi	x3,x3,12
800000d8:	0000                	unimp
800000da:	0018                	0x18
800000dc:	01b6                	slli	x3,x3,0xd
800000de:	0008                	0x8
800000e0:	0082                	c.slli64	x1
800000e2:	01f20027          	0x1f20027
800000e6:	0000                	unimp
800000e8:	0126                	slli	x2,x2,0x9
800000ea:	0001                	nop
800000ec:	01e0                	addi	x8,x2,204
800000ee:	0031000f          	0x31000f
800000f2:	000c002b          	0xc002b
800000f6:	000e                	c.slli	x0,0x3
800000f8:	0008                	0x8
800000fa:	004e                	c.slli	x0,0x13
800000fc:	00f1                	addi	x1,x1,28
800000fe:	00070037          	lui	x0,0x70
80000102:	0010                	0x10
80000104:	000e0003          	lb	x0,0(x28)
80000108:	0009                	c.nop	2
8000010a:	0000                	unimp
8000010c:	01e1                	addi	x3,x3,24
8000010e:	0000                	unimp
80000110:	000e                	c.slli	x0,0x3
80000112:	0014                	0x14
80000114:	00110003          	lb	x0,1(x2)
80000118:	00310007          	0x310007
8000011c:	00c1                	addi	x1,x1,16
8000011e:	0048                	addi	x10,x2,4
80000120:	0008                	0x8
80000122:	000c000f          	0xc000f
80000126:	0031                	c.nop	12
80000128:	0036                	c.slli	x0,0xd
8000012a:	01f6000f          	0x1f6000f
8000012e:	0000                	unimp
80000130:	0040                	addi	x8,x2,4
80000132:	0000                	unimp
80000134:	0111                	addi	x2,x2,4
80000136:	0129                	addi	x2,x2,10
80000138:	0135                	addi	x2,x2,13
8000013a:	0000                	unimp
8000013c:	ffff                	0xffff

8000013e <delay_cycles>:
8000013e:	c00027f3          	rdcycle	x15
80000142:	c0002773          	rdcycle	x14
80000146:	8f1d                	sub	x14,x14,x15
80000148:	fe876de3          	bltu	x14,x8,80000142 <delay_cycles+0x4>
8000014c:	4080                	lw	x8,0(x9)
8000014e:	0491                	addi	x9,x9,4
80000150:	8082                	ret

80000152 <serial_emit>:
80000152:	1171                	addi	x2,x2,-4
80000154:	c006                	sw	x1,0(x2)
80000156:	00000097          	auipc	x1,0x0
8000015a:	048080e7          	jalr	72(x1) # 8000019e <serial_qemit>
8000015e:	87a2                	mv	x15,x8
80000160:	4080                	lw	x8,0(x9)
80000162:	0491                	addi	x9,x9,4
80000164:	dbed                	beqz	x15,80000156 <serial_emit+0x4>
80000166:	40010737          	lui	x14,0x40010
8000016a:	c300                	sw	x8,0(x14)
8000016c:	4080                	lw	x8,0(x9)
8000016e:	0491                	addi	x9,x9,4
80000170:	4082                	lw	x1,0(x2)
80000172:	0111                	addi	x2,x2,4
80000174:	8082                	ret

80000176 <serial_key>:
80000176:	1171                	addi	x2,x2,-4
80000178:	c006                	sw	x1,0(x2)
8000017a:	00000097          	auipc	x1,0x0
8000017e:	044080e7          	jalr	68(x1) # 800001be <serial_qkey>
80000182:	87a2                	mv	x15,x8
80000184:	4080                	lw	x8,0(x9)
80000186:	0491                	addi	x9,x9,4
80000188:	dbed                	beqz	x15,8000017a <serial_key+0x4>
8000018a:	14f1                	addi	x9,x9,-4
8000018c:	c080                	sw	x8,0(x9)
8000018e:	40010737          	lui	x14,0x40010
80000192:	4300                	lw	x8,0(x14)
80000194:	0ff47413          	andi	x8,x8,255
80000198:	4082                	lw	x1,0(x2)
8000019a:	0111                	addi	x2,x2,4
8000019c:	8082                	ret

8000019e <serial_qemit>:
8000019e:	1171                	addi	x2,x2,-4
800001a0:	c006                	sw	x1,0(x2)
800001a2:	14f1                	addi	x9,x9,-4
800001a4:	c080                	sw	x8,0(x9)
800001a6:	40020437          	lui	x8,0x40020
800001aa:	4000                	lw	x8,0(x8)
800001ac:	20047413          	andi	x8,x8,512
800001b0:	00143413          	seqz	x8,x8
800001b4:	40800433          	neg	x8,x8
800001b8:	4082                	lw	x1,0(x2)
800001ba:	0111                	addi	x2,x2,4
800001bc:	8082                	ret

800001be <serial_qkey>:
800001be:	1171                	addi	x2,x2,-4
800001c0:	c006                	sw	x1,0(x2)
800001c2:	14f1                	addi	x9,x9,-4
800001c4:	c080                	sw	x8,0(x9)
800001c6:	40020437          	lui	x8,0x40020
800001ca:	4000                	lw	x8,0(x8)
800001cc:	10047413          	andi	x8,x8,256
800001d0:	00143413          	seqz	x8,x8
800001d4:	147d                	addi	x8,x8,-1
800001d6:	4082                	lw	x1,0(x2)
800001d8:	0111                	addi	x2,x2,4
800001da:	8082                	ret

800001dc <dotgaensefuesschen>:
800001dc:	14f1                	addi	x9,x9,-4
800001de:	c080                	sw	x8,0(x9)
800001e0:	8406                	mv	x8,x1
800001e2:	0000c783          	lbu	x15,0(x1)
800001e6:	0085                	addi	x1,x1,1
800001e8:	90be                	add	x1,x1,x15
800001ea:	0010f793          	andi	x15,x1,1
800001ee:	90be                	add	x1,x1,x15

800001f0 <ctype>:
800001f0:	1161                	addi	x2,x2,-8
800001f2:	c206                	sw	x1,4(x2)
800001f4:	c02a                	sw	x10,0(x2)
800001f6:	00044503          	lbu	x10,0(x8) # 40020000 <uart_flags>
800001fa:	0405                	addi	x8,x8,1
800001fc:	a039                	j	8000020a <type_intern>

800001fe <type>:
800001fe:	1161                	addi	x2,x2,-8
80000200:	c206                	sw	x1,4(x2)
80000202:	c02a                	sw	x10,0(x2)
80000204:	8522                	mv	x10,x8
80000206:	4080                	lw	x8,0(x9)
80000208:	0491                	addi	x9,x9,4

8000020a <type_intern>:
8000020a:	cd01                	beqz	x10,80000222 <type_intern+0x18>
8000020c:	14f1                	addi	x9,x9,-4
8000020e:	c080                	sw	x8,0(x9)
80000210:	00044403          	lbu	x8,0(x8)
80000214:	00000097          	auipc	x1,0x0
80000218:	f3e080e7          	jalr	-194(x1) # 80000152 <serial_emit>
8000021c:	0405                	addi	x8,x8,1
8000021e:	157d                	addi	x10,x10,-1
80000220:	f575                	bnez	x10,8000020c <type_intern+0x2>
80000222:	4080                	lw	x8,0(x9)
80000224:	0491                	addi	x9,x9,4
80000226:	4092                	lw	x1,4(x2)
80000228:	4502                	lw	x10,0(x2)
8000022a:	0121                	addi	x2,x2,8
8000022c:	8082                	ret

8000022e <hexdot>:
8000022e:	1141                	addi	x2,x2,-16
80000230:	c606                	sw	x1,12(x2)
80000232:	c42a                	sw	x10,8(x2)
80000234:	c22e                	sw	x11,4(x2)
80000236:	c032                	sw	x12,0(x2)
80000238:	8522                	mv	x10,x8
8000023a:	4080                	lw	x8,0(x9)
8000023c:	0491                	addi	x9,x9,4
8000023e:	02000593          	li	x11,32
80000242:	14f1                	addi	x9,x9,-4
80000244:	c080                	sw	x8,0(x9)
80000246:	01c55413          	srli	x8,x10,0x1c
8000024a:	883d                	andi	x8,x8,15
8000024c:	4629                	li	x12,10
8000024e:	00c46363          	bltu	x8,x12,80000254 <hexdot+0x26>
80000252:	041d                	addi	x8,x8,7
80000254:	03040413          	addi	x8,x8,48
80000258:	00000097          	auipc	x1,0x0
8000025c:	efa080e7          	jalr	-262(x1) # 80000152 <serial_emit>
80000260:	0512                	slli	x10,x10,0x4
80000262:	15f1                	addi	x11,x11,-4
80000264:	fdf9                	bnez	x11,80000242 <hexdot+0x14>
80000266:	40b2                	lw	x1,12(x2)
80000268:	4522                	lw	x10,8(x2)
8000026a:	4592                	lw	x11,4(x2)
8000026c:	4602                	lw	x12,0(x2)
8000026e:	0141                	addi	x2,x2,16

80000270 <space>:
80000270:	14f1                	addi	x9,x9,-4
80000272:	c080                	sw	x8,0(x9)
80000274:	02000413          	li	x8,32
80000278:	bde9                	j	80000152 <serial_emit>

8000027a <dump>:
8000027a:	1161                	addi	x2,x2,-8
8000027c:	c206                	sw	x1,4(x2)
8000027e:	c02a                	sw	x10,0(x2)
80000280:	00000097          	auipc	x1,0x0
80000284:	f5c080e7          	jalr	-164(x1) # 800001dc <dotgaensefuesschen>
80000288:	0a01                	addi	x20,x20,0
8000028a:	8522                	mv	x10,x8
8000028c:	4080                	lw	x8,0(x9)
8000028e:	0491                	addi	x9,x9,4
80000290:	9522                	add	x10,x10,x8
80000292:	14f1                	addi	x9,x9,-4
80000294:	c080                	sw	x8,0(x9)
80000296:	00000097          	auipc	x1,0x0
8000029a:	f98080e7          	jalr	-104(x1) # 8000022e <hexdot>
8000029e:	00000097          	auipc	x1,0x0
800002a2:	f3e080e7          	jalr	-194(x1) # 800001dc <dotgaensefuesschen>
800002a6:	3a02                	fld	f20,32(x2)
800002a8:	0020                	addi	x8,x2,8
800002aa:	14f1                	addi	x9,x9,-4
800002ac:	c080                	sw	x8,0(x9)
800002ae:	4000                	lw	x8,0(x8)
800002b0:	00000097          	auipc	x1,0x0
800002b4:	f7e080e7          	jalr	-130(x1) # 8000022e <hexdot>
800002b8:	00000097          	auipc	x1,0x0
800002bc:	f24080e7          	jalr	-220(x1) # 800001dc <dotgaensefuesschen>
800002c0:	0a01                	addi	x20,x20,0
800002c2:	0411                	addi	x8,x8,4
800002c4:	fc8577e3          	bgeu	x10,x8,80000292 <dump+0x18>
800002c8:	4080                	lw	x8,0(x9)
800002ca:	0491                	addi	x9,x9,4
800002cc:	4092                	lw	x1,4(x2)
800002ce:	4502                	lw	x10,0(x2)
800002d0:	0121                	addi	x2,x2,8
800002d2:	8082                	ret
	...
